target datalayout = "e-m:e-p270:32:32-p271:32:32-p272:64:64-i64:64-i128:128-f80:128-n8:16:32:64-S128"
target triple = "x86_64-pc-linux-gnu"

%struct._zend_executor_globals = type { %struct._zval_struct, %struct._zval_struct, [32 x ptr], ptr, ptr, %struct._zend_array, %struct._zend_array, ptr, i32, i32, ptr, ptr, ptr, ptr, ptr, ptr, i64, ptr, ptr, i32, i32, i64, i32, i32, i32, i8, i8, %struct.zend_atomic_bool_s, %struct.zend_atomic_bool_s, ptr, i64, ptr, ptr, %struct._zend_array, %struct._zend_array, i32, i8, %struct._zval_struct, %struct._zval_struct, %struct._zend_stack, %struct._zend_stack, %struct._zend_stack, ptr, i32, i32, i64, ptr, ptr, ptr, %struct._zend_objects_store, ptr, ptr, ptr, [3 x %struct._zend_op], ptr, i8, i8, i64, i32, i32, ptr, [16 x %struct._HashTableIterator], ptr, %union._zend_function, %struct._zend_op, %struct._zend_array, i64, %struct.zend_get_gc_buffer, ptr, ptr, ptr, i64, i8, i32, ptr, ptr, i64, %struct._zend_call_stack, i64, i64, [6 x ptr] }
%struct.zend_atomic_bool_s = type { i8 }
%struct._zval_struct = type { %union._zend_value, %union.anon, %union.anon.2 }
%union._zend_value = type { i64 }
%union.anon = type { i32 }
%union.anon.2 = type { i32 }
%struct._zend_stack = type { i32, i32, i32, ptr }
%struct._zend_objects_store = type { ptr, i32, i32, i32 }
%struct._HashTableIterator = type { ptr, i32, i32 }
%union._zend_function = type { %struct._zend_op_array }
%struct._zend_op_array = type { i8, [3 x i8], i32, ptr, ptr, ptr, i32, i32, ptr, ptr, ptr, ptr, i32, i32, i32, i32, ptr, ptr, ptr, ptr, ptr, i32, i32, ptr, ptr, ptr, i32, i32, i32, i32, ptr, ptr, [6 x ptr] }
%struct._zend_op = type { ptr, %union._znode_op, %union._znode_op, %union._znode_op, i32, i32, i8, i8, i8, i8 }
%union._znode_op = type { i32 }
%struct._zend_array = type { %struct._zend_refcounted_h, %union.anon.4, i32, %union.anon.6, i32, i32, i32, i32, i64, ptr }
%struct._zend_refcounted_h = type { i32, %union.anon.3 }
%union.anon.3 = type { i32 }
%union.anon.4 = type { i32 }
%union.anon.6 = type { ptr }
%struct.zend_get_gc_buffer = type { ptr, ptr, ptr }
%struct._zend_call_stack = type { ptr, i64 }
%struct.php_user_stream_wrapper = type { %struct._php_stream_wrapper, ptr, ptr, ptr }
%struct._php_stream_wrapper = type { ptr, ptr, i32 }
%struct._zend_execute_data = type { ptr, ptr, ptr, ptr, %struct._zval_struct, ptr, ptr, ptr, ptr }
%struct._zend_string = type { %struct._zend_refcounted_h, i64, i64, [1 x i8] }
%struct._zend_class_entry = type { i8, ptr, %union.anon.8, i32, i32, i32, i32, ptr, ptr, ptr, %struct._zend_array, %struct._zend_array, %struct._zend_array, ptr, ptr, ptr, ptr, ptr, ptr, ptr, ptr, ptr, ptr, ptr, ptr, ptr, ptr, ptr, ptr, ptr, ptr, ptr, %union.anon.9, ptr, ptr, ptr, ptr, i32, i32, %union.anon.10, ptr, ptr, ptr, ptr, i32, ptr, ptr, %union.anon.11 }
%union.anon.8 = type { ptr }
%union.anon.9 = type { ptr }
%union.anon.10 = type { ptr }
%union.anon.11 = type { %struct.anon.12 }
%struct.anon.12 = type { ptr, i32, i32 }

@le_protocols = internal global i32 0, align 4
@.str.1 = private unnamed_addr constant [5 x i8] c"SC|l\00", align 1
@executor_globals = external global %struct._zend_executor_globals, align 8
@.str.2 = private unnamed_addr constant [35 x i8] c"Protocol %s:// is already defined.\00", align 1
@.str.3 = private unnamed_addr constant [80 x i8] c"Invalid protocol scheme specified. Unable to register wrapper class %s to %s://\00", align 1

; Function Attrs: nounwind uwtable
define hidden void @zif_stream_wrapper_register(ptr noundef %0, ptr noundef %1) #0 {
  %3 = alloca ptr, align 8
  %4 = alloca ptr, align 8
  %5 = alloca ptr, align 8
  %6 = alloca ptr, align 8
  %7 = alloca ptr, align 8
  %8 = alloca ptr, align 8
  %9 = alloca ptr, align 8
  %10 = alloca ptr, align 8
  %11 = alloca i64, align 8
  store ptr %0, ptr %5, align 8
  store ptr %1, ptr %6, align 8
  store ptr null, ptr %9, align 8
  store i64 0, ptr %11, align 8
  %12 = load ptr, ptr %5, align 8
  %13 = getelementptr inbounds %struct._zend_execute_data, ptr %12, i32 0, i32 4
  %14 = getelementptr inbounds %struct._zval_struct, ptr %13, i32 0, i32 2
  %15 = load i32, ptr %14, align 4
  %16 = call i32 (i32, ptr, ...) @zend_parse_parameters(i32 noundef %15, ptr noundef @.str.1, ptr noundef %7, ptr noundef %9, ptr noundef %11)
  %17 = icmp eq i32 %16, -1
  br i1 %17, label %18, label %23

18:                                               ; preds = %2
  br label %19

19:                                               ; preds = %18
  %20 = load ptr, ptr getelementptr inbounds (%struct._zend_executor_globals, ptr @executor_globals, i32 0, i32 50), align 8
  %21 = icmp ne ptr %20, null
  call void @llvm.assume(i1 %21)
  br label %99

22:                                               ; No predecessors!
  br label %23

23:                                               ; preds = %22, %2
  %24 = call noalias ptr @_ecalloc(i64 noundef 1, i64 noundef 48) #11
  store ptr %24, ptr %8, align 8
  %25 = load ptr, ptr %9, align 8
  %26 = load ptr, ptr %8, align 8
  %27 = getelementptr inbounds %struct.php_user_stream_wrapper, ptr %26, i32 0, i32 2
  store ptr %25, ptr %27, align 8
  %28 = load ptr, ptr %7, align 8
  %29 = getelementptr inbounds %struct._zend_string, ptr %28, i32 0, i32 3
  %30 = getelementptr inbounds [1 x i8], ptr %29, i64 0, i64 0
  %31 = load ptr, ptr %7, align 8
  %32 = getelementptr inbounds %struct._zend_string, ptr %31, i32 0, i32 2
  %33 = load i64, ptr %32, align 8
  %34 = call noalias ptr @_estrndup(ptr noundef %30, i64 noundef %33)
  %35 = load ptr, ptr %8, align 8
  %36 = getelementptr inbounds %struct.php_user_stream_wrapper, ptr %35, i32 0, i32 1
  store ptr %34, ptr %36, align 8
  %37 = load ptr, ptr %8, align 8
  %38 = getelementptr inbounds %struct.php_user_stream_wrapper, ptr %37, i32 0, i32 0
  %39 = getelementptr inbounds %struct._php_stream_wrapper, ptr %38, i32 0, i32 0
  store ptr @user_stream_wops, ptr %39, align 8
  %40 = load ptr, ptr %8, align 8
  %41 = load ptr, ptr %8, align 8
  %42 = getelementptr inbounds %struct.php_user_stream_wrapper, ptr %41, i32 0, i32 0
  %43 = getelementptr inbounds %struct._php_stream_wrapper, ptr %42, i32 0, i32 1
  store ptr %40, ptr %43, align 8
  %44 = load i64, ptr %11, align 8
  %45 = and i64 %44, 1
  %46 = icmp ne i64 %45, 0
  %47 = zext i1 %46 to i32
  %48 = load ptr, ptr %8, align 8
  %49 = getelementptr inbounds %struct.php_user_stream_wrapper, ptr %48, i32 0, i32 0
  %50 = getelementptr inbounds %struct._php_stream_wrapper, ptr %49, i32 0, i32 2
  store i32 %47, ptr %50, align 8
  %51 = load ptr, ptr %8, align 8
  %52 = load i32, ptr @le_protocols, align 4
  %53 = call ptr @zend_register_resource(ptr noundef %51, i32 noundef %52)
  store ptr %53, ptr %10, align 8
  %54 = load ptr, ptr %7, align 8
  %55 = load ptr, ptr %8, align 8
  %56 = getelementptr inbounds %struct.php_user_stream_wrapper, ptr %55, i32 0, i32 0
  %57 = call i32 @php_register_url_stream_wrapper_volatile(ptr noundef %54, ptr noundef %56)
  %58 = icmp eq i32 %57, 0
  br i1 %58, label %59, label %69

59:                                               ; preds = %23
  %60 = load ptr, ptr %10, align 8
  %61 = load ptr, ptr %8, align 8
  %62 = getelementptr inbounds %struct.php_user_stream_wrapper, ptr %61, i32 0, i32 3
  store ptr %60, ptr %62, align 8
  br label %63

63:                                               ; preds = %59
  br label %64

64:                                               ; preds = %63
  %65 = load ptr, ptr %6, align 8
  %66 = getelementptr inbounds %struct._zval_struct, ptr %65, i32 0, i32 1
  store i32 3, ptr %66, align 8
  br label %67

67:                                               ; preds = %64
  br label %99

68:                                               ; No predecessors!
  br label %69

69:                                               ; preds = %68, %23
  %70 = call ptr @_php_stream_get_url_stream_wrappers_hash()
  %71 = load ptr, ptr %7, align 8
  store ptr %70, ptr %3, align 8
  store ptr %71, ptr %4, align 8
  %72 = load ptr, ptr %3, align 8
  %73 = load ptr, ptr %4, align 8
  %74 = call ptr @zend_hash_find(ptr noundef %72, ptr noundef %73) #12
  %75 = icmp ne ptr %74, null
  br i1 %75, label %76, label %80

76:                                               ; preds = %69
  %77 = load ptr, ptr %7, align 8
  %78 = getelementptr inbounds %struct._zend_string, ptr %77, i32 0, i32 3
  %79 = getelementptr inbounds [1 x i8], ptr %78, i64 0, i64 0
  call void (ptr, i32, ptr, ...) @php_error_docref(ptr noundef null, i32 noundef 2, ptr noundef @.str.2, ptr noundef %79)
  br label %91

80:                                               ; preds = %69
  %81 = load ptr, ptr %8, align 8
  %82 = getelementptr inbounds %struct.php_user_stream_wrapper, ptr %81, i32 0, i32 2
  %83 = load ptr, ptr %82, align 8
  %84 = getelementptr inbounds %struct._zend_class_entry, ptr %83, i32 0, i32 1
  %85 = load ptr, ptr %84, align 8
  %86 = getelementptr inbounds %struct._zend_string, ptr %85, i32 0, i32 3
  %87 = getelementptr inbounds [1 x i8], ptr %86, i64 0, i64 0
  %88 = load ptr, ptr %7, align 8
  %89 = getelementptr inbounds %struct._zend_string, ptr %88, i32 0, i32 3
  %90 = getelementptr inbounds [1 x i8], ptr %89, i64 0, i64 0
  call void (ptr, i32, ptr, ...) @php_error_docref(ptr noundef null, i32 noundef 2, ptr noundef @.str.3, ptr noundef %87, ptr noundef %90)
  br label %91

91:                                               ; preds = %80, %76
  %92 = load ptr, ptr %10, align 8
  %93 = call i32 @zend_list_delete(ptr noundef %92)
  br label %94

94:                                               ; preds = %91
  br label %95

95:                                               ; preds = %94
  %96 = load ptr, ptr %6, align 8
  %97 = getelementptr inbounds %struct._zval_struct, ptr %96, i32 0, i32 1
  store i32 2, ptr %97, align 8
  br label %98

98:                                               ; preds = %95
  br label %99

99:                                               ; preds = %98, %67, %19
  ret void
}