; Function Attrs: nounwind uwtable
define hidden void @zif_stream_wrapper_register(ptr nocapture noundef readonly %0, ptr nocapture noundef writeonly %1) local_unnamed_addr #0 {
  %3 = alloca ptr, align 8
  %4 = alloca ptr, align 8
  %5 = alloca i64, align 8
  store ptr null, ptr %4, align 8
  store i64 0, ptr %5, align 8
  %6 = getelementptr inbounds i8, ptr %0, i64 44
  %7 = load i32, ptr %6, align 4
  %8 = call i32 (i32, ptr, ...) @zend_parse_parameters(i32 noundef %7, ptr noundef nonnull @.str.1, ptr noundef nonnull %3, ptr noundef nonnull %4, ptr noundef nonnull %5) #11
  %9 = icmp eq i32 %8, -1
  br i1 %9, label %10, label %13

10:                                               ; preds = %2
  %11 = load ptr, ptr getelementptr inbounds (%struct._zend_executor_globals, ptr @executor_globals, i64 0, i32 50), align 8
  %12 = icmp ne ptr %11, null
  call void @llvm.assume(i1 %12)
  br label %53

13:                                               ; preds = %2
  %14 = call noalias dereferenceable_or_null(48) ptr @_ecalloc(i64 noundef 1, i64 noundef 48) #12
  %15 = load ptr, ptr %4, align 8
  %16 = getelementptr inbounds i8, ptr %14, i64 32
  store ptr %15, ptr %16, align 8
  %17 = load ptr, ptr %3, align 8
  %18 = getelementptr inbounds i8, ptr %17, i64 24
  %19 = getelementptr inbounds i8, ptr %17, i64 16
  %20 = load i64, ptr %19, align 8
  %21 = call noalias ptr @_estrndup(ptr noundef nonnull %18, i64 noundef %20) #11
  %22 = getelementptr inbounds i8, ptr %14, i64 24
  store ptr %21, ptr %22, align 8
  store ptr @user_stream_wops, ptr %14, align 8
  %23 = getelementptr inbounds i8, ptr %14, i64 8
  store ptr %14, ptr %23, align 8
  %24 = load i64, ptr %5, align 8
  %25 = trunc i64 %24 to i32
  %26 = and i32 %25, 1
  %27 = getelementptr inbounds i8, ptr %14, i64 16
  store i32 %26, ptr %27, align 8
  %28 = load i32, ptr @le_protocols, align 4
  %29 = call ptr @zend_register_resource(ptr noundef nonnull %14, i32 noundef %28) #11
  %30 = load ptr, ptr %3, align 8
  %31 = call i32 @php_register_url_stream_wrapper_volatile(ptr noundef %30, ptr noundef nonnull %14) #11
  %32 = icmp eq i32 %31, 0
  br i1 %32, label %33, label %36

33:                                               ; preds = %13
  %34 = getelementptr inbounds i8, ptr %14, i64 40
  store ptr %29, ptr %34, align 8
  %35 = getelementptr inbounds i8, ptr %1, i64 8
  store i32 3, ptr %35, align 8
  br label %53

36:                                               ; preds = %13
  %37 = call ptr @_php_stream_get_url_stream_wrappers_hash() #11
  %38 = load ptr, ptr %3, align 8
  %39 = call ptr @zend_hash_find(ptr noundef %37, ptr noundef %38) #11
  %.not = icmp eq ptr %39, null
  br i1 %.not, label %43, label %40

40:                                               ; preds = %36
  %41 = load ptr, ptr %3, align 8
  %42 = getelementptr inbounds i8, ptr %41, i64 24
  call void (ptr, i32, ptr, ...) @php_error_docref(ptr noundef null, i32 noundef 2, ptr noundef nonnull @.str.2, ptr noundef nonnull %42) #11
  br label %50

43:                                               ; preds = %36
  %44 = load ptr, ptr %16, align 8
  %45 = getelementptr inbounds i8, ptr %44, i64 8
  %46 = load ptr, ptr %45, align 8
  %47 = getelementptr inbounds i8, ptr %46, i64 24
  %48 = load ptr, ptr %3, align 8
  %49 = getelementptr inbounds i8, ptr %48, i64 24
  call void (ptr, i32, ptr, ...) @php_error_docref(ptr noundef null, i32 noundef 2, ptr noundef nonnull @.str.3, ptr noundef nonnull %47, ptr noundef nonnull %49) #11
  br label %50

50:                                               ; preds = %43, %40
  %51 = call i32 @zend_list_delete(ptr noundef %29) #11
  %52 = getelementptr inbounds i8, ptr %1, i64 8
  store i32 2, ptr %52, align 8
  br label %53

53:                                               ; preds = %50, %33, %10
  ret void
}